target datalayout = "e-m:e-p270:32:32-p271:32:32-p272:64:64-i64:64-i128:128-f80:128-n8:16:32:64-S128"
target triple = "x86_64-unknown-linux-gnu"

%struct.badblocks_context = type { i64, i64, i32 }

@.str.2 = private unnamed_addr constant [18 x i8] c"block/badblocks.c\00", align 1

; Function Attrs: fn_ret_thunk_extern nofree norecurse nosync nounwind null_pointer_is_valid memory(read, inaccessiblemem: none)
define internal fastcc i32 @prev_badblocks(ptr nocapture noundef readonly %0, ptr nocapture noundef readonly %1, i32 noundef %2) unnamed_addr #5 align 16 {
  %4 = load i64, ptr %1, align 8
  %5 = getelementptr inbounds i8, ptr %0, i64 8
  %6 = load i32, ptr %5, align 8
  %7 = icmp eq i32 %6, 0
  br i1 %7, label %85, label %8

8:                                                ; preds = %3
  %9 = icmp sgt i32 %2, -1
  br i1 %9, label %10, label %41

10:                                               ; preds = %8
  %11 = add nuw i32 %2, 2
  %12 = getelementptr inbounds i8, ptr %0, i64 24
  %13 = load ptr, ptr %12, align 8
  %14 = zext nneg i32 %2 to i64
  %15 = zext i32 %6 to i64
  %16 = add i32 %6, -1
  br label %17

17:                                               ; preds = %32, %10
  %18 = phi i64 [ %22, %32 ], [ %14, %10 ]
  %19 = trunc i64 %18 to i32
  %20 = icmp sgt i32 %11, %19
  br i1 %20, label %21, label %38

21:                                               ; preds = %17
  %22 = add nuw nsw i64 %18, 1
  %23 = icmp sgt i32 %6, %19
  br i1 %23, label %24, label %38

24:                                               ; preds = %21
  %25 = getelementptr i64, ptr %13, i64 %18
  %26 = load i64, ptr %25, align 8
  %27 = lshr i64 %26, 9
  %28 = and i64 %27, 18014398509481983
  %29 = icmp ugt i64 %28, %4
  br i1 %29, label %38, label %30

30:                                               ; preds = %24
  %31 = icmp eq i64 %22, %15
  br i1 %31, label %38, label %32

32:                                               ; preds = %30
  %33 = getelementptr i64, ptr %13, i64 %22
  %34 = load i64, ptr %33, align 8
  %35 = lshr i64 %34, 9
  %36 = and i64 %35, 18014398509481983
  %37 = icmp ugt i64 %36, %4
  br i1 %37, label %38, label %17, !llvm.loop !41

38:                                               ; preds = %32, %30, %24, %21, %17
  %39 = phi i32 [ -1, %24 ], [ -1, %21 ], [ -1, %17 ], [ %19, %32 ], [ %16, %30 ]
  %40 = icmp sgt i32 %39, -1
  br i1 %40, label %85, label %41

41:                                               ; preds = %38, %8
  %42 = getelementptr inbounds i8, ptr %0, i64 24
  %43 = load ptr, ptr %42, align 8
  %44 = load i64, ptr %43, align 8
  %45 = lshr i64 %44, 9
  %46 = and i64 %45, 18014398509481983
  %47 = icmp ugt i64 %46, %4
  br i1 %47, label %85, label %48

48:                                               ; preds = %41
  %49 = add i32 %6, -1
  %50 = sext i32 %49 to i64
  %51 = getelementptr i64, ptr %43, i64 %50
  %52 = load i64, ptr %51, align 8
  %53 = lshr i64 %52, 9
  %54 = and i64 %53, 18014398509481983
  %55 = icmp ugt i64 %54, %4
  br i1 %55, label %56, label %85

56:                                               ; preds = %62, %48
  %57 = phi i32 [ %73, %62 ], [ -1, %48 ]
  %58 = phi i32 [ %74, %62 ], [ 0, %48 ]
  %59 = phi i32 [ %76, %62 ], [ %6, %48 ]
  %60 = sub i32 %59, %58
  %61 = icmp sgt i32 %60, 1
  br i1 %61, label %62, label %77

62:                                               ; preds = %56
  %63 = add i32 %59, %58
  %64 = sdiv i32 %63, 2
  %65 = sext i32 %64 to i64
  %66 = getelementptr i64, ptr %43, i64 %65
  %67 = load i64, ptr %66, align 8
  %68 = lshr i64 %67, 9
  %69 = and i64 %68, 18014398509481983
  %70 = icmp eq i64 %69, %4
  %71 = icmp ult i64 %69, %4
  %72 = select i1 %71, i32 %64, i32 %58
  %73 = select i1 %70, i32 %64, i32 %57
  %74 = select i1 %70, i32 %58, i32 %72
  %75 = icmp ugt i64 %69, %4
  %76 = select i1 %75, i32 %64, i32 %59
  br i1 %70, label %85, label %56

77:                                               ; preds = %56
  %78 = sext i32 %58 to i64
  %79 = getelementptr i64, ptr %43, i64 %78
  %80 = load i64, ptr %79, align 8
  %81 = lshr i64 %80, 9
  %82 = and i64 %81, 18014398509481983
  %83 = icmp ugt i64 %82, %4
  %84 = select i1 %83, i32 %57, i32 %58
  br label %85

85:                                               ; preds = %77, %62, %48, %41, %38, %3
  %86 = phi i32 [ -1, %41 ], [ %49, %48 ], [ %39, %38 ], [ -1, %3 ], [ %84, %77 ], [ %73, %62 ]
  ret i32 %86
}

; Function Attrs: fn_ret_thunk_extern nounwind null_pointer_is_valid
define dso_local i32 @badblocks_check(ptr noundef %0, i64 noundef %1, i32 noundef %2, ptr nocapture noundef writeonly %3, ptr nocapture noundef writeonly %4) #0 align 16 {
  %6 = alloca %struct.badblocks_context, align 8
  call void @llvm.lifetime.start.p0(i64 24, ptr nonnull %6) #10
  call void @llvm.memset.p0.i64(ptr noundef nonnull align 8 dereferenceable(24) %6, i8 0, i64 24, i1 false), !annotation !5
  %7 = getelementptr inbounds i8, ptr %0, i64 16
  %8 = load i32, ptr %7, align 8
  %9 = icmp slt i32 %8, 0
  %10 = icmp eq i32 %2, 0
  %11 = or i1 %10, %9
  br i1 %11, label %12, label %13, !prof !6

12:                                               ; preds = %5
  tail call void asm sideeffect "342: nop\0A\09.pushsection .discard.instr_begin\0A\09.long 342b - .\0A\09.popsection\0A\09", "i,~{dirflag},~{fpsr},~{flags}"(i32 342) #10, !srcloc !7
  tail call void asm sideeffect "1:\09.byte 0x0f, 0x0b\0A.pushsection __bug_table,\22aw\22\0A2:\09.long 1b - .\09# bug_entry::bug_addr\0A\09.long ${0:c} - .\09# bug_entry::file\0A\09.word ${1:c}\09# bug_entry::line\0A\09.word ${2:c}\09# bug_entry::flags\0A\09.org 2b+${3:c}\0A.popsection\0A998:\0A\09.pushsection .discard.reachable\0A\09.long 998b\0A\09.popsection\0A\09", "i,i,i,i,~{dirflag},~{fpsr},~{flags}"(ptr nonnull @.str.2, i32 1284, i32 2305, i64 12) #10, !srcloc !8
  tail call void asm sideeffect "343: nop\0A\09.pushsection .discard.instr_end\0A\09.long 343b - .\0A\09.popsection\0A\09", "i,~{dirflag},~{fpsr},~{flags}"(i32 343) #10, !srcloc !9
  br label %13

13:                                               ; preds = %12, %5
  %14 = getelementptr inbounds i8, ptr %0, i64 36
  %15 = getelementptr inbounds i8, ptr %0, i64 24
  %16 = getelementptr inbounds i8, ptr %6, i64 8
  %17 = getelementptr inbounds i8, ptr %0, i64 8
  br label %18

18:                                               ; preds = %133, %13
  %19 = phi i32 [ 0, %13 ], [ %122, %133 ]
  %20 = phi i32 [ -1, %13 ], [ %123, %133 ]
  %21 = phi i32 [ %2, %13 ], [ %128, %133 ]
  %22 = phi i64 [ %1, %13 ], [ %127, %133 ]
  %23 = load volatile i32, ptr %14, align 4
  %24 = and i32 %23, 1
  %25 = icmp eq i32 %24, 0
  br i1 %25, label %30, label %26

26:                                               ; preds = %26, %18
  tail call void asm sideeffect "rep; nop", "~{memory},~{dirflag},~{fpsr},~{flags}"() #10, !srcloc !10
  %27 = load volatile i32, ptr %14, align 4
  %28 = and i32 %27, 1
  %29 = icmp eq i32 %28, 0
  br i1 %29, label %30, label %26, !llvm.loop !11

30:                                               ; preds = %26, %18
  %31 = phi i32 [ %23, %18 ], [ %27, %26 ]
  tail call void asm sideeffect "", "~{memory},~{dirflag},~{fpsr},~{flags}"() #10, !srcloc !14
  %32 = load ptr, ptr %15, align 8
  br label %33

33:                                               ; preds = %120, %30
  %34 = phi i32 [ %19, %30 ], [ %122, %120 ]
  %35 = phi i32 [ %20, %30 ], [ %123, %120 ]
  %36 = phi i32 [ 0, %30 ], [ %124, %120 ]
  %37 = phi i32 [ 0, %30 ], [ %125, %120 ]
  %38 = phi i32 [ %21, %30 ], [ %128, %120 ]
  %39 = phi i64 [ %22, %30 ], [ %127, %120 ]
  store i64 %39, ptr %6, align 8
  %40 = sext i32 %38 to i64
  store i64 %40, ptr %16, align 8
  %41 = load i32, ptr %17, align 8
  %42 = icmp eq i32 %41, 0
  br i1 %42, label %120, label %43

43:                                               ; preds = %33
  %44 = call fastcc i32 @prev_badblocks(ptr noundef %0, ptr noundef nonnull %6, i32 noundef %35)
  %45 = icmp sgt i32 %44, -1
  br i1 %45, label %46, label %100

46:                                               ; preds = %43
  %47 = add nuw i32 %44, 1
  %48 = icmp slt i32 %47, %41
  br i1 %48, label %62, label %49

49:                                               ; preds = %46
  %50 = load ptr, ptr %15, align 8
  %51 = zext nneg i32 %44 to i64
  %52 = getelementptr i64, ptr %50, i64 %51
  %53 = load i64, ptr %52, align 8
  %54 = lshr i64 %53, 9
  %55 = and i64 %54, 18014398509481983
  %56 = icmp ult i64 %39, %55
  br i1 %56, label %120, label %57

57:                                               ; preds = %49
  %58 = and i64 %53, 511
  %59 = add nuw nsw i64 %58, 1
  %60 = add nuw nsw i64 %59, %55
  %61 = icmp ult i64 %39, %60
  br i1 %61, label %62, label %120

62:                                               ; preds = %57, %46
  %63 = load ptr, ptr %15, align 8
  %64 = zext nneg i32 %44 to i64
  %65 = getelementptr i64, ptr %63, i64 %64
  %66 = load i64, ptr %65, align 8
  %67 = lshr i64 %66, 9
  %68 = and i64 %67, 18014398509481983
  %69 = icmp ult i64 %39, %68
  br i1 %69, label %100, label %70

70:                                               ; preds = %62
  %71 = and i64 %66, 511
  %72 = add nuw nsw i64 %71, 1
  %73 = add nuw nsw i64 %72, %68
  %74 = icmp ult i64 %39, %73
  br i1 %74, label %75, label %100

75:                                               ; preds = %70
  %76 = getelementptr i64, ptr %32, i64 %64
  %77 = load i64, ptr %76, align 8
  %78 = icmp sgt i64 %77, -1
  %79 = lshr i64 %77, 63
  %80 = trunc i64 %79 to i32
  %81 = add i32 %36, %80
  %82 = zext i1 %78 to i32
  %83 = add i32 %37, %82
  %84 = lshr i64 %77, 9
  %85 = and i64 %84, 18014398509481983
  %86 = and i64 %77, 511
  %87 = add nuw nsw i64 %86, 1
  %88 = add nuw nsw i64 %87, %85
  %89 = add i64 %39, %40
  %90 = icmp ult i64 %88, %89
  %91 = sub i64 %88, %39
  %92 = trunc i64 %91 to i32
  %93 = select i1 %90, i32 %92, i32 %38
  %94 = icmp eq i32 %34, 0
  br i1 %94, label %95, label %120

95:                                               ; preds = %75
  store i64 %85, ptr %3, align 8
  %96 = load i64, ptr %76, align 8
  %97 = trunc i64 %96 to i32
  %98 = and i32 %97, 511
  %99 = add nuw nsw i32 %98, 1
  store i32 %99, ptr %4, align 4
  br label %120

100:                                              ; preds = %70, %62, %43
  %101 = add i32 %44, 1
  %102 = icmp slt i32 %101, %41
  br i1 %102, label %103, label %120

103:                                              ; preds = %100
  %104 = load ptr, ptr %15, align 8
  %105 = sext i32 %101 to i64
  %106 = getelementptr i64, ptr %104, i64 %105
  %107 = load i64, ptr %106, align 8
  %108 = lshr i64 %107, 9
  %109 = and i64 %108, 18014398509481983
  %110 = icmp ult i64 %39, %109
  %111 = add i64 %39, %40
  %112 = icmp ugt i64 %111, %109
  %113 = and i1 %110, %112
  br i1 %113, label %114, label %120

114:                                              ; preds = %103
  %115 = getelementptr i64, ptr %32, i64 %105
  %116 = load i64, ptr %115, align 8
  %117 = lshr i64 %116, 9
  %118 = sub i64 %117, %39
  %119 = trunc i64 %118 to i32
  br label %120

120:                                              ; preds = %114, %103, %100, %95, %75, %57, %49, %33
  %121 = phi i32 [ %93, %95 ], [ %93, %75 ], [ %119, %114 ], [ %38, %33 ], [ %38, %100 ], [ %38, %57 ], [ %38, %49 ], [ %38, %103 ]
  %122 = phi i32 [ 1, %95 ], [ 1, %75 ], [ %34, %114 ], [ %34, %33 ], [ %34, %100 ], [ %34, %57 ], [ %34, %49 ], [ %34, %103 ]
  %123 = phi i32 [ %35, %95 ], [ %35, %75 ], [ %101, %114 ], [ %35, %33 ], [ %35, %100 ], [ %35, %57 ], [ %35, %49 ], [ %35, %103 ]
  %124 = phi i32 [ %81, %95 ], [ %81, %75 ], [ %36, %114 ], [ %36, %33 ], [ %36, %100 ], [ %36, %57 ], [ %36, %49 ], [ %36, %103 ]
  %125 = phi i32 [ %83, %95 ], [ %83, %75 ], [ %37, %114 ], [ %37, %33 ], [ %37, %100 ], [ %37, %57 ], [ %37, %49 ], [ %37, %103 ]
  %126 = sext i32 %121 to i64
  %127 = add i64 %39, %126
  %128 = sub i32 %38, %121
  %129 = icmp sgt i32 %128, 0
  br i1 %129, label %33, label %130

130:                                              ; preds = %120
  %131 = icmp slt i32 %128, 0
  br i1 %131, label %132, label %133, !prof !6

132:                                              ; preds = %130
  tail call void asm sideeffect "344: nop\0A\09.pushsection .discard.instr_begin\0A\09.long 344b - .\0A\09.popsection\0A\09", "i,~{dirflag},~{fpsr},~{flags}"(i32 344) #10, !srcloc !15
  tail call void asm sideeffect "1:\09.byte 0x0f, 0x0b\0A.pushsection __bug_table,\22aw\22\0A2:\09.long 1b - .\09# bug_entry::bug_addr\0A\09.long ${0:c} - .\09# bug_entry::file\0A\09.word ${1:c}\09# bug_entry::line\0A\09.word ${2:c}\09# bug_entry::flags\0A\09.org 2b+${3:c}\0A.popsection\0A998:\0A\09.pushsection .discard.reachable\0A\09.long 998b\0A\09.popsection\0A\09", "i,i,i,i,~{dirflag},~{fpsr},~{flags}"(ptr nonnull @.str.2, i32 1358, i32 2305, i64 12) #10, !srcloc !16
  tail call void asm sideeffect "345: nop\0A\09.pushsection .discard.instr_end\0A\09.long 345b - .\0A\09.popsection\0A\09", "i,~{dirflag},~{fpsr},~{flags}"(i32 345) #10, !srcloc !17
  br label %133

133:                                              ; preds = %132, %130
  tail call void asm sideeffect "", "~{memory},~{dirflag},~{fpsr},~{flags}"() #10, !srcloc !18
  %134 = load volatile i32, ptr %14, align 4
  %135 = icmp eq i32 %134, %31
  br i1 %135, label %136, label %18

136:                                              ; preds = %133
  %137 = icmp sgt i32 %125, 0
  %138 = icmp sgt i32 %124, 0
  %139 = zext i1 %138 to i32
  %140 = select i1 %137, i32 -1, i32 %139
  call void @llvm.lifetime.end.p0(i64 24, ptr nonnull %6) #10
  ret i32 %140
}