; Function Attrs: fn_ret_thunk_extern nounwind null_pointer_is_valid
define dso_local i32 @badblocks_check(ptr noundef %0, i64 noundef %1, i32 noundef %2, ptr nocapture noundef writeonly %3, ptr nocapture noundef writeonly %4) #0 align 16 {
  %6 = getelementptr inbounds i8, ptr %0, i64 16
  %7 = load i32, ptr %6, align 8
  %8 = icmp slt i32 %7, 0
  %9 = icmp eq i32 %2, 0
  %10 = or i1 %9, %8
  br i1 %10, label %11, label %12, !prof !5

11:                                               ; preds = %5
  tail call void asm sideeffect "342: nop\0A\09.pushsection .discard.instr_begin\0A\09.long 342b - .\0A\09.popsection\0A\09", "i,~{dirflag},~{fpsr},~{flags}"(i32 342) #9, !srcloc !6
  tail call void asm sideeffect "1:\09.byte 0x0f, 0x0b\0A.pushsection __bug_table,\22aw\22\0A2:\09.long 1b - .\09# bug_entry::bug_addr\0A\09.long ${0:c} - .\09# bug_entry::file\0A\09.word ${1:c}\09# bug_entry::line\0A\09.word ${2:c}\09# bug_entry::flags\0A\09.org 2b+${3:c}\0A.popsection\0A998:\0A\09.pushsection .discard.reachable\0A\09.long 998b\0A\09.popsection\0A\09", "i,i,i,i,~{dirflag},~{fpsr},~{flags}"(ptr nonnull @.str.2, i32 1284, i32 2305, i64 12) #9, !srcloc !7
  tail call void asm sideeffect "343: nop\0A\09.pushsection .discard.instr_end\0A\09.long 343b - .\0A\09.popsection\0A\09", "i,~{dirflag},~{fpsr},~{flags}"(i32 343) #9, !srcloc !8
  br label %12

12:                                               ; preds = %11, %5
  %13 = getelementptr inbounds i8, ptr %0, i64 36
  %14 = getelementptr inbounds i8, ptr %0, i64 24
  %15 = getelementptr inbounds i8, ptr %0, i64 8
  br label %16

16:                                               ; preds = %187, %12
  %17 = phi i32 [ 0, %12 ], [ %.us-phi45, %187 ]
  %18 = phi i32 [ -1, %12 ], [ %.us-phi1946, %187 ]
  %19 = phi i32 [ %2, %12 ], [ %.us-phi2350, %187 ]
  %20 = phi i64 [ %1, %12 ], [ %.us-phi2249, %187 ]
  %21 = load volatile i32, ptr %13, align 4
  %22 = and i32 %21, 1
  %23 = icmp eq i32 %22, 0
  br i1 %23, label %.loopexit, label %.preheader

.preheader:                                       ; preds = %16, %.preheader
  tail call void asm sideeffect "rep; nop", "~{memory},~{dirflag},~{fpsr},~{flags}"() #9, !srcloc !9
  %24 = load volatile i32, ptr %13, align 4
  %25 = and i32 %24, 1
  %26 = icmp eq i32 %25, 0
  br i1 %26, label %.loopexit, label %.preheader, !llvm.loop !10

.loopexit:                                        ; preds = %.preheader, %16
  %27 = phi i32 [ %21, %16 ], [ %24, %.preheader ]
  tail call void asm sideeffect "", "~{memory},~{dirflag},~{fpsr},~{flags}"() #9, !srcloc !13
  %28 = load ptr, ptr %14, align 8
  %29 = load i32, ptr %15, align 8
  %30 = icmp eq i32 %29, 0
  br i1 %30, label %.split18.thread, label %.split

.split18.thread:                                  ; preds = %.loopexit
  %31 = sext i32 %19 to i64
  %32 = add i64 %20, %31
  br label %187

.split:                                           ; preds = %.loopexit, %175
  %33 = phi i32 [ %177, %175 ], [ %17, %.loopexit ]
  %34 = phi i32 [ %178, %175 ], [ %18, %.loopexit ]
  %35 = phi i32 [ %179, %175 ], [ 0, %.loopexit ]
  %36 = phi i32 [ %180, %175 ], [ 0, %.loopexit ]
  %37 = phi i32 [ %183, %175 ], [ %19, %.loopexit ]
  %38 = phi i64 [ %182, %175 ], [ %20, %.loopexit ]
  %39 = sext i32 %37 to i64
  %40 = load i32, ptr %15, align 8
  %41 = icmp eq i32 %40, 0
  br i1 %41, label %175, label %42

42:                                               ; preds = %.split
  %43 = icmp sgt i32 %34, -1
  br i1 %43, label %44, label %..thread_crit_edge.i

..thread_crit_edge.i:                             ; preds = %42
  %.pre.i = load ptr, ptr %14, align 8
  br label %.thread.i

44:                                               ; preds = %42
  %45 = add nuw i32 %34, 2
  %46 = load ptr, ptr %14, align 8
  %47 = zext nneg i32 %34 to i64
  %48 = zext i32 %40 to i64
  %49 = add i32 %40, -1
  br label %50

50:                                               ; preds = %65, %44
  %51 = phi i64 [ %55, %65 ], [ %47, %44 ]
  %52 = trunc i64 %51 to i32
  %53 = icmp sgt i32 %45, %52
  br i1 %53, label %54, label %.thread.i

54:                                               ; preds = %50
  %55 = add nuw nsw i64 %51, 1
  %56 = icmp sgt i32 %40, %52
  br i1 %56, label %57, label %.thread.i

57:                                               ; preds = %54
  %58 = getelementptr i64, ptr %46, i64 %51
  %59 = load i64, ptr %58, align 8
  %60 = lshr i64 %59, 9
  %61 = and i64 %60, 18014398509481983
  %62 = icmp ugt i64 %61, %38
  br i1 %62, label %.thread.i, label %63

63:                                               ; preds = %57
  %64 = icmp eq i64 %55, %48
  br i1 %64, label %71, label %65

65:                                               ; preds = %63
  %66 = getelementptr i64, ptr %46, i64 %55
  %67 = load i64, ptr %66, align 8
  %68 = lshr i64 %67, 9
  %69 = and i64 %68, 18014398509481983
  %70 = icmp ugt i64 %69, %38
  br i1 %70, label %71, label %50, !llvm.loop !14

71:                                               ; preds = %65, %63
  %72 = phi i32 [ %52, %65 ], [ %49, %63 ]
  %73 = icmp sgt i32 %72, -1
  br i1 %73, label %prev_badblocks.exit.thread7, label %.thread.i

.thread.i:                                        ; preds = %57, %54, %50, %71, %..thread_crit_edge.i
  %74 = phi ptr [ %.pre.i, %..thread_crit_edge.i ], [ %46, %71 ], [ %46, %50 ], [ %46, %54 ], [ %46, %57 ]
  %75 = load i64, ptr %74, align 8
  %76 = lshr i64 %75, 9
  %77 = and i64 %76, 18014398509481983
  %78 = icmp ugt i64 %77, %38
  br i1 %78, label %prev_badblocks.exit.thread, label %79

79:                                               ; preds = %.thread.i
  %80 = add i32 %40, -1
  %81 = sext i32 %80 to i64
  %82 = getelementptr i64, ptr %74, i64 %81
  %83 = load i64, ptr %82, align 8
  %84 = lshr i64 %83, 9
  %85 = and i64 %84, 18014398509481983
  %86 = icmp ugt i64 %85, %38
  br i1 %86, label %.preheader.i, label %prev_badblocks.exit

.preheader.i:                                     ; preds = %79, %91
  %87 = phi i32 [ %101, %91 ], [ 0, %79 ]
  %88 = phi i32 [ %103, %91 ], [ %40, %79 ]
  %89 = sub i32 %88, %87
  %90 = icmp sgt i32 %89, 1
  br i1 %90, label %91, label %104

91:                                               ; preds = %.preheader.i
  %92 = add i32 %88, %87
  %93 = sdiv i32 %92, 2
  %94 = sext i32 %93 to i64
  %95 = getelementptr i64, ptr %74, i64 %94
  %96 = load i64, ptr %95, align 8
  %97 = lshr i64 %96, 9
  %98 = and i64 %97, 18014398509481983
  %99 = icmp eq i64 %98, %38
  %100 = icmp ult i64 %98, %38
  %101 = select i1 %100, i32 %93, i32 %87
  %102 = icmp ugt i64 %98, %38
  %103 = select i1 %102, i32 %93, i32 %88
  br i1 %99, label %prev_badblocks.exit, label %.preheader.i

104:                                              ; preds = %.preheader.i
  %105 = sext i32 %87 to i64
  %106 = getelementptr i64, ptr %74, i64 %105
  %107 = load i64, ptr %106, align 8
  %108 = lshr i64 %107, 9
  %109 = and i64 %108, 18014398509481983
  %110 = icmp ugt i64 %109, %38
  br i1 %110, label %prev_badblocks.exit.thread, label %prev_badblocks.exit

prev_badblocks.exit:                              ; preds = %91, %104, %79
  %111 = phi i32 [ %80, %79 ], [ %87, %104 ], [ %93, %91 ]
  %112 = icmp sgt i32 %111, -1
  br i1 %112, label %prev_badblocks.exit.thread7, label %prev_badblocks.exit.thread

prev_badblocks.exit.thread7:                      ; preds = %71, %prev_badblocks.exit
  %113 = phi ptr [ %74, %prev_badblocks.exit ], [ %46, %71 ]
  %114 = phi i32 [ %111, %prev_badblocks.exit ], [ %72, %71 ]
  %115 = add nuw i32 %114, 1
  %116 = icmp slt i32 %115, %40
  %.phi.trans.insert = zext nneg i32 %114 to i64
  %.phi.trans.insert33 = getelementptr i64, ptr %113, i64 %.phi.trans.insert
  %.pre = load i64, ptr %.phi.trans.insert33, align 8
  %.pre35 = lshr i64 %.pre, 9
  %.pre37 = and i64 %.pre35, 18014398509481983
  br i1 %116, label %prev_badblocks.exit.thread7._crit_edge, label %117

117:                                              ; preds = %prev_badblocks.exit.thread7
  %118 = icmp ult i64 %38, %.pre37
  br i1 %118, label %175, label %119

119:                                              ; preds = %117
  %120 = and i64 %.pre, 511
  %121 = add nuw nsw i64 %120, 1
  %122 = add nuw nsw i64 %121, %.pre37
  %123 = icmp ult i64 %38, %122
  br i1 %123, label %prev_badblocks.exit.thread7._crit_edge, label %175

prev_badblocks.exit.thread7._crit_edge:           ; preds = %prev_badblocks.exit.thread7, %119
  %124 = icmp ult i64 %38, %.pre37
  br i1 %124, label %prev_badblocks.exit.thread, label %125

125:                                              ; preds = %prev_badblocks.exit.thread7._crit_edge
  %126 = and i64 %.pre, 511
  %127 = add nuw nsw i64 %126, 1
  %128 = add nuw nsw i64 %127, %.pre37
  %129 = icmp ult i64 %38, %128
  br i1 %129, label %130, label %prev_badblocks.exit.thread

130:                                              ; preds = %125
  %131 = getelementptr i64, ptr %28, i64 %.phi.trans.insert
  %132 = load i64, ptr %131, align 8
  %133 = icmp sgt i64 %132, -1
  %134 = lshr i64 %132, 63
  %135 = trunc i64 %134 to i32
  %136 = add i32 %35, %135
  %137 = zext i1 %133 to i32
  %138 = add i32 %36, %137
  %139 = lshr i64 %132, 9
  %140 = and i64 %139, 18014398509481983
  %141 = and i64 %132, 511
  %142 = add nuw nsw i64 %141, 1
  %143 = add nuw nsw i64 %142, %140
  %144 = add nsw i64 %38, %39
  %145 = icmp ult i64 %143, %144
  %146 = sub nsw i64 %143, %38
  %147 = trunc i64 %146 to i32
  %148 = select i1 %145, i32 %147, i32 %37
  %149 = icmp eq i32 %33, 0
  br i1 %149, label %150, label %175

150:                                              ; preds = %130
  store i64 %140, ptr %3, align 8
  %151 = load i64, ptr %131, align 8
  %152 = trunc i64 %151 to i32
  %153 = and i32 %152, 511
  %154 = add nuw nsw i32 %153, 1
  store i32 %154, ptr %4, align 4
  br label %175

prev_badblocks.exit.thread:                       ; preds = %104, %.thread.i, %125, %prev_badblocks.exit.thread7._crit_edge, %prev_badblocks.exit
  %155 = phi ptr [ %113, %125 ], [ %113, %prev_badblocks.exit.thread7._crit_edge ], [ %74, %prev_badblocks.exit ], [ %74, %.thread.i ], [ %74, %104 ]
  %156 = phi i32 [ %114, %125 ], [ %114, %prev_badblocks.exit.thread7._crit_edge ], [ %111, %prev_badblocks.exit ], [ -1, %.thread.i ], [ -1, %104 ]
  %157 = add i32 %156, 1
  %158 = icmp slt i32 %157, %40
  br i1 %158, label %159, label %175

159:                                              ; preds = %prev_badblocks.exit.thread
  %160 = sext i32 %157 to i64
  %161 = getelementptr i64, ptr %155, i64 %160
  %162 = load i64, ptr %161, align 8
  %163 = lshr i64 %162, 9
  %164 = and i64 %163, 18014398509481983
  %165 = icmp ult i64 %38, %164
  %166 = add i64 %38, %39
  %167 = icmp ugt i64 %166, %164
  %168 = and i1 %165, %167
  br i1 %168, label %169, label %175

169:                                              ; preds = %159
  %170 = getelementptr i64, ptr %28, i64 %160
  %171 = load i64, ptr %170, align 8
  %172 = lshr i64 %171, 9
  %173 = sub nsw i64 %172, %38
  %174 = trunc i64 %173 to i32
  br label %175

175:                                              ; preds = %169, %159, %prev_badblocks.exit.thread, %150, %130, %119, %117, %.split
  %176 = phi i32 [ %148, %150 ], [ %148, %130 ], [ %174, %169 ], [ %37, %.split ], [ %37, %prev_badblocks.exit.thread ], [ %37, %119 ], [ %37, %117 ], [ %37, %159 ]
  %177 = phi i32 [ 1, %150 ], [ 1, %130 ], [ %33, %169 ], [ %33, %.split ], [ %33, %prev_badblocks.exit.thread ], [ %33, %119 ], [ %33, %117 ], [ %33, %159 ]
  %178 = phi i32 [ %34, %150 ], [ %34, %130 ], [ %157, %169 ], [ %34, %.split ], [ %34, %prev_badblocks.exit.thread ], [ %34, %119 ], [ %34, %117 ], [ %34, %159 ]
  %179 = phi i32 [ %136, %150 ], [ %136, %130 ], [ %35, %169 ], [ %35, %.split ], [ %35, %prev_badblocks.exit.thread ], [ %35, %119 ], [ %35, %117 ], [ %35, %159 ]
  %180 = phi i32 [ %138, %150 ], [ %138, %130 ], [ %36, %169 ], [ %36, %.split ], [ %36, %prev_badblocks.exit.thread ], [ %36, %119 ], [ %36, %117 ], [ %36, %159 ]
  %181 = sext i32 %176 to i64
  %182 = add i64 %38, %181
  %183 = sub i32 %37, %176
  %184 = icmp sgt i32 %183, 0
  br i1 %184, label %.split, label %.split18, !llvm.loop !15

.split18:                                         ; preds = %175
  %185 = icmp slt i32 %183, 0
  br i1 %185, label %186, label %187, !prof !17

186:                                              ; preds = %.split18
  tail call void asm sideeffect "344: nop\0A\09.pushsection .discard.instr_begin\0A\09.long 344b - .\0A\09.popsection\0A\09", "i,~{dirflag},~{fpsr},~{flags}"(i32 344) #9, !srcloc !18
  tail call void asm sideeffect "1:\09.byte 0x0f, 0x0b\0A.pushsection __bug_table,\22aw\22\0A2:\09.long 1b - .\09# bug_entry::bug_addr\0A\09.long ${0:c} - .\09# bug_entry::file\0A\09.word ${1:c}\09# bug_entry::line\0A\09.word ${2:c}\09# bug_entry::flags\0A\09.org 2b+${3:c}\0A.popsection\0A998:\0A\09.pushsection .discard.reachable\0A\09.long 998b\0A\09.popsection\0A\09", "i,i,i,i,~{dirflag},~{fpsr},~{flags}"(ptr nonnull @.str.2, i32 1358, i32 2305, i64 12) #9, !srcloc !19
  tail call void asm sideeffect "345: nop\0A\09.pushsection .discard.instr_end\0A\09.long 345b - .\0A\09.popsection\0A\09", "i,~{dirflag},~{fpsr},~{flags}"(i32 345) #9, !srcloc !20
  br label %187

187:                                              ; preds = %.split18.thread, %186, %.split18
  %.us-phi2350 = phi i32 [ 0, %.split18.thread ], [ %183, %186 ], [ 0, %.split18 ]
  %.us-phi2249 = phi i64 [ %32, %.split18.thread ], [ %182, %186 ], [ %182, %.split18 ]
  %.us-phi2148 = phi i32 [ 0, %.split18.thread ], [ %180, %186 ], [ %180, %.split18 ]
  %.us-phi2047 = phi i32 [ 0, %.split18.thread ], [ %179, %186 ], [ %179, %.split18 ]
  %.us-phi1946 = phi i32 [ %18, %.split18.thread ], [ %178, %186 ], [ %178, %.split18 ]
  %.us-phi45 = phi i32 [ %17, %.split18.thread ], [ %177, %186 ], [ %177, %.split18 ]
  tail call void asm sideeffect "", "~{memory},~{dirflag},~{fpsr},~{flags}"() #9, !srcloc !21
  %188 = load volatile i32, ptr %13, align 4
  %189 = icmp eq i32 %188, %27
  br i1 %189, label %190, label %16

190:                                              ; preds = %187
  %191 = icmp sgt i32 %.us-phi2148, 0
  %192 = icmp sgt i32 %.us-phi2047, 0
  %193 = zext i1 %192 to i32
  %194 = select i1 %191, i32 -1, i32 %193
  ret i32 %194
}